; Function Attrs: nounwind uwtable
define void @b2Body_EnableSleep(i64 %0, i1 noundef zeroext %1) local_unnamed_addr #0 {
  %.sroa.2.0.extract.shift = lshr i64 %0, 32
  %3 = trunc nuw i64 %.sroa.2.0.extract.shift to i32
  %4 = and i32 %3, 65535
  %5 = tail call ptr @b2GetWorldLocked(i32 noundef %4) #10
  %6 = icmp eq ptr %5, null
  br i1 %6, label %b2WakeBody.exit, label %7

7:                                                ; preds = %2
  %8 = zext i1 %1 to i8
  %9 = getelementptr inbounds nuw i8, ptr %5, i64 1032
  %.val.i = load ptr, ptr %9, align 8, !tbaa !10
  %10 = shl i64 %0, 32
  %sext.i = add i64 %10, -4294967296
  %11 = ashr exact i64 %sext.i, 25
  %12 = getelementptr inbounds i8, ptr %.val.i, i64 %11
  %13 = getelementptr inbounds nuw i8, ptr %12, i64 118
  store i8 %8, ptr %13, align 2, !tbaa !146
  br i1 %1, label %b2WakeBody.exit, label %14

14:                                               ; preds = %7
  %15 = getelementptr inbounds nuw i8, ptr %12, i64 40
  %16 = load i32, ptr %15, align 8, !tbaa !19
  %17 = icmp sgt i32 %16, 2
  br i1 %17, label %18, label %b2WakeBody.exit

18:                                               ; preds = %14
  tail call void @b2WakeSolverSet(ptr noundef nonnull %5, i32 noundef %16) #10
  br label %b2WakeBody.exit

b2WakeBody.exit:                                  ; preds = %18, %14, %7, %2
  ret void
}